target datalayout = "e-m:e-p270:32:32-p271:32:32-p272:64:64-i64:64-i128:128-f80:128-n8:16:32:64-S128"
target triple = "x86_64-pc-linux-gnu"

%"class.Json::Value" = type { %"union.Json::Value::ValueHolder", %struct.anon, %"class.Json::Value::Comments", i64, i64 }
%"union.Json::Value::ValueHolder" = type { i64 }
%struct.anon = type { i16, [2 x i8] }
%"class.Json::Value::Comments" = type { %"class.std::unique_ptr" }
%"class.std::unique_ptr" = type { %"struct.std::__uniq_ptr_data" }
%"struct.std::__uniq_ptr_data" = type { %"class.std::__uniq_ptr_impl" }
%"class.std::__uniq_ptr_impl" = type { %"class.std::tuple" }
%"class.std::tuple" = type { %"struct.std::_Tuple_impl" }
%"struct.std::_Tuple_impl" = type { %"struct.std::_Head_base.1" }
%"struct.std::_Head_base.1" = type { ptr }

; Function Attrs: mustprogress nounwind uwtable
define internal noundef zeroext i1 @_ZN4JsonL10IsIntegralEd(double noundef %0) #5 {
  %2 = alloca double, align 8
  %3 = alloca double, align 8
  store double %0, ptr %2, align 8
  %4 = load double, ptr %2, align 8
  %5 = call double @modf(double noundef %4, ptr noundef %3) #3
  %6 = fcmp oeq double %5, 0.000000e+00
  ret i1 %6
}

; Function Attrs: mustprogress nounwind uwtable
define dso_local noundef i32 @_ZNK4Json5Value4typeEv(ptr noundef nonnull align 8 dereferenceable(40) %0) #5 align 2 {
  %2 = alloca ptr, align 8
  store ptr %0, ptr %2, align 8
  %3 = load ptr, ptr %2, align 8
  %4 = getelementptr inbounds %"class.Json::Value", ptr %3, i32 0, i32 1
  %5 = load i16, ptr %4, align 8
  %6 = and i16 %5, 255
  %7 = zext i16 %6 to i32
  ret i32 %7
}

; Function Attrs: mustprogress uwtable
define dso_local noundef zeroext i1 @_ZNK4Json5Value7isInt64Ev(ptr noundef nonnull align 8 dereferenceable(40) %0) #4 align 2 {
  %2 = alloca i1, align 1
  %3 = alloca ptr, align 8
  store ptr %0, ptr %3, align 8
  %4 = load ptr, ptr %3, align 8
  %5 = call noundef i32 @_ZNK4Json5Value4typeEv(ptr noundef nonnull align 8 dereferenceable(40) %4)
  switch i32 %5, label %25 [
    i32 1, label %6
    i32 2, label %7
    i32 3, label %11
  ]

6:                                                ; preds = %1
  store i1 true, ptr %2, align 1
  br label %27

7:                                                ; preds = %1
  %8 = getelementptr inbounds %"class.Json::Value", ptr %4, i32 0, i32 0
  %9 = load i64, ptr %8, align 8
  %10 = icmp ule i64 %9, 9223372036854775807
  store i1 %10, ptr %2, align 1
  br label %27

11:                                               ; preds = %1
  %12 = getelementptr inbounds %"class.Json::Value", ptr %4, i32 0, i32 0
  %13 = load double, ptr %12, align 8
  %14 = fcmp oge double %13, 0xC3E0000000000000
  br i1 %14, label %15, label %23

15:                                               ; preds = %11
  %16 = getelementptr inbounds %"class.Json::Value", ptr %4, i32 0, i32 0
  %17 = load double, ptr %16, align 8
  %18 = fcmp olt double %17, 0x43E0000000000000
  br i1 %18, label %19, label %23

19:                                               ; preds = %15
  %20 = getelementptr inbounds %"class.Json::Value", ptr %4, i32 0, i32 0
  %21 = load double, ptr %20, align 8
  %22 = call noundef zeroext i1 @_ZN4JsonL10IsIntegralEd(double noundef %21)
  br label %23

23:                                               ; preds = %19, %15, %11
  %24 = phi i1 [ false, %15 ], [ false, %11 ], [ %22, %19 ]
  store i1 %24, ptr %2, align 1
  br label %27

25:                                               ; preds = %1
  br label %26

26:                                               ; preds = %25
  store i1 false, ptr %2, align 1
  br label %27

27:                                               ; preds = %26, %23, %7, %6
  %28 = load i1, ptr %2, align 1
  ret i1 %28
}